target datalayout = "e-m:e-p270:32:32-p271:32:32-p272:64:64-i64:64-i128:128-f80:128-n8:16:32:64-S128"
target triple = "x86_64-pc-linux-gnu"

%struct.PLpgSQL_execstate = type { ptr, ptr, ptr, i64, i8, i32, i32, i8, i8, i8, i8, ptr, ptr, ptr, ptr, ptr, ptr, ptr, i32, i32, ptr, ptr, ptr, ptr, ptr, ptr, ptr, ptr, ptr, ptr, i64, ptr, ptr, ptr, ptr, ptr }
%struct.PLpgSQL_rec = type { i32, i32, ptr, i32, i8, i8, ptr, ptr, i32, i32, ptr }

@.str.2 = private unnamed_addr constant [11 x i8] c"plpgsql-18\00", align 1
@.str.4 = private unnamed_addr constant [10 x i8] c"pl_exec.c\00", align 1
@.str.146 = private unnamed_addr constant [32 x i8] c"record \22%s\22 is not assigned yet\00", align 1
@.str.147 = private unnamed_addr constant [67 x i8] c"The tuple structure of a not-yet-assigned record is indeterminate.\00", align 1
@__func__.instantiate_empty_record_variable = private unnamed_addr constant [34 x i8] c"instantiate_empty_record_variable\00", align 1

; Function Attrs: nounwind uwtable
define internal void @instantiate_empty_record_variable(ptr noundef %0, ptr noundef %1) #0 {
  %3 = alloca ptr, align 8
  %4 = alloca ptr, align 8
  store ptr %0, ptr %3, align 8
  store ptr %1, ptr %4, align 8
  %5 = load ptr, ptr %4, align 8
  %6 = getelementptr inbounds nuw %struct.PLpgSQL_rec, ptr %5, i32 0, i32 8
  %7 = load i32, ptr %6, align 8
  %8 = icmp eq i32 %7, 2249
  br i1 %8, label %9, label %24

9:                                                ; preds = %2
  br label %10

10:                                               ; preds = %9
  br i1 true, label %11, label %13

11:                                               ; preds = %10
  %12 = call zeroext i1 @errstart_cold(i32 noundef 21, ptr noundef @.str.2) #13
  br i1 %12, label %15, label %22

13:                                               ; preds = %10
  %14 = call zeroext i1 @errstart(i32 noundef 21, ptr noundef @.str.2)
  br i1 %14, label %15, label %22

15:                                               ; preds = %13, %11
  %16 = call i32 @errcode(i32 noundef 325)
  %17 = load ptr, ptr %4, align 8
  %18 = getelementptr inbounds nuw %struct.PLpgSQL_rec, ptr %17, i32 0, i32 2
  %19 = load ptr, ptr %18, align 8
  %20 = call i32 (ptr, ...) @errmsg(ptr noundef @.str.146, ptr noundef %19)
  %21 = call i32 (ptr, ...) @errdetail(ptr noundef @.str.147)
  call void @errfinish(ptr noundef @.str.4, i32 noundef 7829, ptr noundef @__func__.instantiate_empty_record_variable)
  br label %22

22:                                               ; preds = %15, %13, %11
  unreachable

23:                                               ; No predecessors!
  br label %24

24:                                               ; preds = %23, %2
  %25 = load ptr, ptr %4, align 8
  call void @revalidate_rectypeid(ptr noundef %25)
  %26 = load ptr, ptr %4, align 8
  %27 = getelementptr inbounds nuw %struct.PLpgSQL_rec, ptr %26, i32 0, i32 8
  %28 = load i32, ptr %27, align 8
  %29 = load ptr, ptr %3, align 8
  %30 = getelementptr inbounds nuw %struct.PLpgSQL_execstate, ptr %29, i32 0, i32 21
  %31 = load ptr, ptr %30, align 8
  %32 = call ptr @make_expanded_record_from_typeid(i32 noundef %28, i32 noundef -1, ptr noundef %31)
  %33 = load ptr, ptr %4, align 8
  %34 = getelementptr inbounds nuw %struct.PLpgSQL_rec, ptr %33, i32 0, i32 10
  store ptr %32, ptr %34, align 8
  ret void
}