; Function Attrs: nounwind uwtable
define internal fastcc void @instantiate_empty_record_variable(ptr noundef readonly captures(none) %0, ptr noundef captures(none) %1) unnamed_addr #0 {
  %3 = getelementptr inbounds nuw i8, ptr %1, i64 40
  %4 = load i32, ptr %3, align 8
  %5 = icmp eq i32 %4, 2249
  br i1 %5, label %6, label %13

6:                                                ; preds = %2
  %7 = tail call zeroext i1 @errstart_cold(i32 noundef 21, ptr noundef nonnull @.str.2) #13
  tail call void @llvm.assume(i1 %7)
  %8 = tail call i32 @errcode(i32 noundef 325) #12
  %9 = getelementptr inbounds nuw i8, ptr %1, i64 8
  %10 = load ptr, ptr %9, align 8
  %11 = tail call i32 (ptr, ...) @errmsg(ptr noundef nonnull @.str.146, ptr noundef %10) #12
  %12 = tail call i32 (ptr, ...) @errdetail(ptr noundef nonnull @.str.147) #12
  tail call void @errfinish(ptr noundef nonnull @.str.4, i32 noundef 7829, ptr noundef nonnull @__func__.instantiate_empty_record_variable) #12
  unreachable

13:                                               ; preds = %2
  tail call fastcc void @revalidate_rectypeid(ptr noundef nonnull %1)
  %14 = load i32, ptr %3, align 8
  %15 = getelementptr inbounds nuw i8, ptr %0, i64 120
  %16 = load ptr, ptr %15, align 8
  %17 = tail call ptr @make_expanded_record_from_typeid(i32 noundef %14, i32 noundef -1, ptr noundef %16) #12
  %18 = getelementptr inbounds nuw i8, ptr %1, i64 48
  store ptr %17, ptr %18, align 8
  ret void
}